target datalayout = "e-m:e-p270:32:32-p271:32:32-p272:64:64-i64:64-i128:128-f80:128-n8:16:32:64-S128"
target triple = "x86_64-pc-linux-gnu"

@proto_opcua = external global i32, align 4

; Function Attrs: inlinehint nounwind null_pointer_is_valid sspstrong uwtable
define internal i64 @construct_encryption_info(i32 noundef %0, i8 noundef zeroext %1) #3 {
  %3 = alloca i32, align 4
  %4 = alloca i8, align 1
  store i32 %0, ptr %3, align 4
  store i8 %1, ptr %4, align 1
  %5 = load i8, ptr %4, align 1
  %6 = zext i8 %5 to i64
  %7 = shl i64 %6, 8
  %8 = load i32, ptr %3, align 4
  %9 = zext i32 %8 to i64
  %10 = or i64 %7, %9
  ret i64 %10
}

; Function Attrs: null_pointer_is_valid sspstrong uwtable
define hidden void @store_encryption_info(ptr noundef %0, i32 noundef %1, i8 noundef zeroext %2) #0 {
  %4 = alloca ptr, align 8
  %5 = alloca i32, align 4
  %6 = alloca i8, align 1
  %7 = alloca ptr, align 8
  %8 = alloca i64, align 8
  store ptr %0, ptr %4, align 8
  store i32 %1, ptr %5, align 4
  store i8 %2, ptr %6, align 1
  call void @llvm.lifetime.start.p0(i64 8, ptr %7) #6
  %9 = load ptr, ptr %4, align 8
  %10 = call ptr @find_conversation_pinfo(ptr noundef %9, i32 noundef 0)
  store ptr %10, ptr %7, align 8
  %11 = load ptr, ptr %7, align 8
  %12 = icmp ne ptr %11, null
  br i1 %12, label %13, label %21

13:                                               ; preds = %3
  call void @llvm.lifetime.start.p0(i64 8, ptr %8) #6
  %14 = load i32, ptr %5, align 4
  %15 = load i8, ptr %6, align 1
  %16 = call i64 @construct_encryption_info(i32 noundef %14, i8 noundef zeroext %15)
  store i64 %16, ptr %8, align 8
  %17 = load ptr, ptr %7, align 8
  %18 = load i32, ptr @proto_opcua, align 4
  %19 = load i64, ptr %8, align 8
  %20 = inttoptr i64 %19 to ptr
  call void @conversation_add_proto_data(ptr noundef %17, i32 noundef %18, ptr noundef %20)
  call void @llvm.lifetime.end.p0(i64 8, ptr %8) #6
  br label %21

21:                                               ; preds = %13, %3
  call void @llvm.lifetime.end.p0(i64 8, ptr %7) #6
  ret void
}