; Function Attrs: null_pointer_is_valid sspstrong uwtable
define hidden void @store_encryption_info(ptr noundef %0, i32 noundef %1, i8 noundef zeroext %2) local_unnamed_addr #0 {
  %4 = tail call ptr @find_conversation_pinfo(ptr noundef %0, i32 noundef 0)
  %.not = icmp eq ptr %4, null
  br i1 %.not, label %12, label %5

5:                                                ; preds = %3
  %6 = zext i8 %2 to i64
  %7 = shl nuw nsw i64 %6, 8
  %8 = zext i32 %1 to i64
  %9 = or i64 %7, %8
  %10 = load i32, ptr @proto_opcua, align 4
  %11 = inttoptr i64 %9 to ptr
  tail call void @conversation_add_proto_data(ptr noundef nonnull %4, i32 noundef %10, ptr noundef %11)
  br label %12

12:                                               ; preds = %5, %3
  ret void
}